; Function Attrs: mustprogress nounwind uwtable
define internal fastcc void @_ZN4ncnnL9transposeERKNS_3MatERS0_RKNS_6OptionE(ptr noundef nonnull readonly align 8 captures(none) dereferenceable(72) %0, ptr noundef nonnull readonly align 8 captures(none) dereferenceable(72) %1, ptr noundef nonnull readonly align 8 captures(none) dereferenceable(64) %2) unnamed_addr #5 {
  %4 = alloca i32, align 4
  %5 = alloca i32, align 4
  %6 = alloca ptr, align 8
  %7 = alloca ptr, align 8
  %8 = tail call i32 @__kmpc_global_thread_num(ptr nonnull @2)
  call void @llvm.lifetime.start.p0(i64 4, ptr nonnull %4) #8
  %9 = getelementptr inbounds nuw i8, ptr %0, i64 44
  %10 = load i32, ptr %9, align 4, !tbaa !36
  store i32 %10, ptr %4, align 4, !tbaa !42
  call void @llvm.lifetime.start.p0(i64 4, ptr nonnull %5) #8
  %11 = getelementptr inbounds nuw i8, ptr %0, i64 48
  %12 = load i32, ptr %11, align 8, !tbaa !41
  store i32 %12, ptr %5, align 4, !tbaa !42
  call void @llvm.lifetime.start.p0(i64 8, ptr nonnull %6) #8
  %13 = load ptr, ptr %0, align 8, !tbaa !33
  store ptr %13, ptr %6, align 8, !tbaa !48
  call void @llvm.lifetime.start.p0(i64 8, ptr nonnull %7) #8
  %14 = load ptr, ptr %1, align 8, !tbaa !33
  store ptr %14, ptr %7, align 8, !tbaa !48
  %15 = getelementptr inbounds nuw i8, ptr %2, i64 4
  %16 = load i32, ptr %15, align 4, !tbaa !50
  tail call void @__kmpc_push_num_threads(ptr nonnull @2, i32 %8, i32 %16)
  call void (ptr, i32, ptr, ...) @__kmpc_fork_call(ptr nonnull @2, i32 4, ptr nonnull @_ZN4ncnnL9transposeERKNS_3MatERS0_RKNS_6OptionE.omp_outlined, ptr nonnull %4, ptr nonnull %7, ptr nonnull %5, ptr nonnull %6)
  call void @llvm.lifetime.end.p0(i64 8, ptr nonnull %7) #8
  call void @llvm.lifetime.end.p0(i64 8, ptr nonnull %6) #8
  call void @llvm.lifetime.end.p0(i64 4, ptr nonnull %5) #8
  call void @llvm.lifetime.end.p0(i64 4, ptr nonnull %4) #8
  ret void
}